target datalayout = "e-m:e-p270:32:32-p271:32:32-p272:64:64-i64:64-i128:128-f80:128-n8:16:32:64-S128"
target triple = "x86_64-pc-linux-gnu"

; Function Attrs: inlinehint nounwind sspstrong uwtable
define internal i32 @rb_check_arity(i32 noundef %0, i32 noundef %1, i32 noundef %2) #8 {
  %4 = alloca i32, align 4
  %5 = alloca i32, align 4
  %6 = alloca i32, align 4
  store i32 %0, ptr %4, align 4, !tbaa !11
  store i32 %1, ptr %5, align 4, !tbaa !11
  store i32 %2, ptr %6, align 4, !tbaa !11
  %7 = load i32, ptr %4, align 4, !tbaa !11
  %8 = load i32, ptr %5, align 4, !tbaa !11
  %9 = icmp slt i32 %7, %8
  br i1 %9, label %17, label %10

10:                                               ; preds = %3
  %11 = load i32, ptr %6, align 4, !tbaa !11
  %12 = icmp ne i32 %11, -1
  br i1 %12, label %13, label %21

13:                                               ; preds = %10
  %14 = load i32, ptr %4, align 4, !tbaa !11
  %15 = load i32, ptr %6, align 4, !tbaa !11
  %16 = icmp sgt i32 %14, %15
  br i1 %16, label %17, label %21

17:                                               ; preds = %13, %3
  %18 = load i32, ptr %4, align 4, !tbaa !11
  %19 = load i32, ptr %5, align 4, !tbaa !11
  %20 = load i32, ptr %6, align 4, !tbaa !11
  call void @rb_error_arity(i32 noundef %18, i32 noundef %19, i32 noundef %20) #28
  unreachable

21:                                               ; preds = %13, %10
  %22 = load i32, ptr %4, align 4, !tbaa !11
  ret i32 %22
}

; Function Attrs: nounwind sspstrong uwtable
define dso_local i64 @rb_file_s_expand_path(i32 noundef %0, ptr noundef nonnull %1) #0 {
  %3 = alloca i32, align 4
  %4 = alloca ptr, align 8
  store i32 %0, ptr %3, align 4, !tbaa !11
  store ptr %1, ptr %4, align 8, !tbaa !13
  %5 = load i32, ptr %3, align 4, !tbaa !11
  %6 = call i32 @rb_check_arity(i32 noundef %5, i32 noundef 1, i32 noundef 2)
  %7 = load ptr, ptr %4, align 8, !tbaa !13
  %8 = getelementptr i64, ptr %7, i64 0
  %9 = load i64, ptr %8, align 8, !tbaa !7
  %10 = load i32, ptr %3, align 4, !tbaa !11
  %11 = icmp sgt i32 %10, 1
  br i1 %11, label %12, label %16

12:                                               ; preds = %2
  %13 = load ptr, ptr %4, align 8, !tbaa !13
  %14 = getelementptr i64, ptr %13, i64 1
  %15 = load i64, ptr %14, align 8, !tbaa !7
  br label %17

16:                                               ; preds = %2
  br label %17

17:                                               ; preds = %16, %12
  %18 = phi i64 [ %15, %12 ], [ 4, %16 ]
  %19 = call i64 @rb_file_expand_path(i64 noundef %9, i64 noundef %18)
  ret i64 %19
}

; Function Attrs: nounwind sspstrong uwtable
define internal i64 @s_expand_path(i32 noundef %0, ptr noundef %1, i64 noundef %2) #0 {
  %4 = alloca i32, align 4
  %5 = alloca ptr, align 8
  %6 = alloca i64, align 8
  store i32 %0, ptr %4, align 4, !tbaa !11
  store ptr %1, ptr %5, align 8, !tbaa !13
  store i64 %2, ptr %6, align 8, !tbaa !7
  %7 = load i32, ptr %4, align 4, !tbaa !11
  %8 = load ptr, ptr %5, align 8, !tbaa !13
  %9 = call i64 @rb_file_s_expand_path(i32 noundef %7, ptr noundef %8)
  ret i64 %9
}